target datalayout = "e-m:e-p270:32:32-p271:32:32-p272:64:64-i64:64-i128:128-f80:128-n8:16:32:64-S128"
target triple = "x86_64-pc-linux-gnu"

%struct.commit_graph = type { ptr, i64, i8, i8, i32, %struct.object_id, ptr, ptr, i32, i32, ptr, ptr, ptr, ptr, ptr, ptr, i64, ptr, i64, ptr, i64, ptr, ptr, i64, ptr, ptr }
%struct.object_id = type { [32 x i8], i32 }

@.str.31 = private unnamed_addr constant [1 x i8] zeroinitializer, align 1
@git_gettext_enabled = external global i32, align 4
@.str.32 = private unnamed_addr constant [44 x i8] c"commit-graph oid fanout chunk is wrong size\00", align 1
@.str.33 = private unnamed_addr constant [40 x i8] c"commit-graph fanout values out of order\00", align 1

; Function Attrs: inlinehint nounwind uwtable
define internal i32 @default_swab32(i32 noundef %0) #5 {
  %2 = alloca i32, align 4
  store i32 %0, ptr %2, align 4, !tbaa !4
  %3 = load i32, ptr %2, align 4, !tbaa !4
  %4 = and i32 %3, -16777216
  %5 = lshr i32 %4, 24
  %6 = load i32, ptr %2, align 4, !tbaa !4
  %7 = and i32 %6, 16711680
  %8 = lshr i32 %7, 8
  %9 = or i32 %5, %8
  %10 = load i32, ptr %2, align 4, !tbaa !4
  %11 = and i32 %10, 65280
  %12 = shl i32 %11, 8
  %13 = or i32 %9, %12
  %14 = load i32, ptr %2, align 4, !tbaa !4
  %15 = and i32 %14, 255
  %16 = shl i32 %15, 24
  %17 = or i32 %13, %16
  ret i32 %17
}

; Function Attrs: inlinehint nounwind uwtable
define internal i32 @git_bswap32(i32 noundef %0) #5 {
  %2 = alloca i32, align 4
  %3 = alloca i32, align 4
  store i32 %0, ptr %2, align 4, !tbaa !4
  call void @llvm.lifetime.start.p0(i64 4, ptr %3) #12
  %4 = load i32, ptr %2, align 4, !tbaa !4
  %5 = call i1 @llvm.is.constant.i32(i32 %4)
  br i1 %5, label %6, label %9

6:                                                ; preds = %1
  %7 = load i32, ptr %2, align 4, !tbaa !4
  %8 = call i32 @default_swab32(i32 noundef %7)
  store i32 %8, ptr %3, align 4, !tbaa !4
  br label %12

9:                                                ; preds = %1
  %10 = load i32, ptr %2, align 4, !tbaa !4
  %11 = call i32 asm "bswap $0", "=r,0,~{dirflag},~{fpsr},~{flags}"(i32 %10) #16, !srcloc !315
  store i32 %11, ptr %3, align 4, !tbaa !4
  br label %12

12:                                               ; preds = %9, %6
  %13 = load i32, ptr %3, align 4, !tbaa !4
  call void @llvm.lifetime.end.p0(i64 4, ptr %3) #12
  ret i32 %13
}

; Function Attrs: inlinehint nounwind uwtable
define internal i32 @const_error() #5 {
  ret i32 -1
}

; Function Attrs: inlinehint nounwind uwtable
define internal ptr @_(ptr noundef %0) #5 {
  %2 = alloca ptr, align 8
  %3 = alloca ptr, align 8
  store ptr %0, ptr %3, align 8, !tbaa !65
  %4 = load ptr, ptr %3, align 8, !tbaa !65
  %5 = load i8, ptr %4, align 1, !tbaa !85
  %6 = icmp ne i8 %5, 0
  br i1 %6, label %8, label %7

7:                                                ; preds = %1
  store ptr @.str.31, ptr %2, align 8
  br label %16

8:                                                ; preds = %1
  %9 = load i32, ptr @git_gettext_enabled, align 4, !tbaa !4
  %10 = icmp ne i32 %9, 0
  br i1 %10, label %13, label %11

11:                                               ; preds = %8
  %12 = load ptr, ptr %3, align 8, !tbaa !65
  store ptr %12, ptr %2, align 8
  br label %16

13:                                               ; preds = %8
  %14 = load ptr, ptr %3, align 8, !tbaa !65
  %15 = call ptr @dcgettext(ptr noundef null, ptr noundef %14, i32 noundef 5) #12
  store ptr %15, ptr %2, align 8
  br label %16

16:                                               ; preds = %13, %11, %7
  %17 = load ptr, ptr %2, align 8
  ret ptr %17
}

; Function Attrs: nounwind uwtable
define internal i32 @graph_read_oid_fanout(ptr noundef %0, i64 noundef %1, ptr noundef %2) #0 {
  %4 = alloca i32, align 4
  %5 = alloca ptr, align 8
  %6 = alloca i64, align 8
  %7 = alloca ptr, align 8
  %8 = alloca ptr, align 8
  %9 = alloca i32, align 4
  %10 = alloca i32, align 4
  %11 = alloca i32, align 4
  %12 = alloca i32, align 4
  store ptr %0, ptr %5, align 8, !tbaa !65
  store i64 %1, ptr %6, align 8, !tbaa !73
  store ptr %2, ptr %7, align 8, !tbaa !78
  call void @llvm.lifetime.start.p0(i64 8, ptr %8) #12
  %13 = load ptr, ptr %7, align 8, !tbaa !78
  store ptr %13, ptr %8, align 8, !tbaa !79
  call void @llvm.lifetime.start.p0(i64 4, ptr %9) #12
  %14 = load i64, ptr %6, align 8, !tbaa !73
  %15 = icmp ne i64 %14, 1024
  br i1 %15, label %16, label %20

16:                                               ; preds = %3
  %17 = call ptr @_(ptr noundef @.str.32)
  %18 = call i32 (ptr, ...) @error(ptr noundef %17)
  %19 = call i32 @const_error()
  store i32 %19, ptr %4, align 4
  store i32 1, ptr %10, align 4
  br label %68

20:                                               ; preds = %3
  %21 = load ptr, ptr %5, align 8, !tbaa !65
  %22 = load ptr, ptr %8, align 8, !tbaa !79
  %23 = getelementptr inbounds nuw %struct.commit_graph, ptr %22, i32 0, i32 11
  store ptr %21, ptr %23, align 8, !tbaa !101
  %24 = load ptr, ptr %8, align 8, !tbaa !79
  %25 = getelementptr inbounds nuw %struct.commit_graph, ptr %24, i32 0, i32 11
  %26 = load ptr, ptr %25, align 8, !tbaa !101
  %27 = getelementptr inbounds i32, ptr %26, i64 255
  %28 = load i32, ptr %27, align 4, !tbaa !4
  %29 = call i32 @git_bswap32(i32 noundef %28)
  %30 = load ptr, ptr %8, align 8, !tbaa !79
  %31 = getelementptr inbounds nuw %struct.commit_graph, ptr %30, i32 0, i32 4
  store i32 %29, ptr %31, align 4, !tbaa !102
  store i32 0, ptr %9, align 4, !tbaa !4
  br label %32

32:                                               ; preds = %64, %20
  %33 = load i32, ptr %9, align 4, !tbaa !4
  %34 = icmp slt i32 %33, 255
  br i1 %34, label %35, label %67

35:                                               ; preds = %32
  call void @llvm.lifetime.start.p0(i64 4, ptr %11) #12
  %36 = load ptr, ptr %8, align 8, !tbaa !79
  %37 = getelementptr inbounds nuw %struct.commit_graph, ptr %36, i32 0, i32 11
  %38 = load ptr, ptr %37, align 8, !tbaa !101
  %39 = load i32, ptr %9, align 4, !tbaa !4
  %40 = sext i32 %39 to i64
  %41 = getelementptr inbounds i32, ptr %38, i64 %40
  %42 = load i32, ptr %41, align 4, !tbaa !4
  %43 = call i32 @git_bswap32(i32 noundef %42)
  store i32 %43, ptr %11, align 4, !tbaa !4
  call void @llvm.lifetime.start.p0(i64 4, ptr %12) #12
  %44 = load ptr, ptr %8, align 8, !tbaa !79
  %45 = getelementptr inbounds nuw %struct.commit_graph, ptr %44, i32 0, i32 11
  %46 = load ptr, ptr %45, align 8, !tbaa !101
  %47 = load i32, ptr %9, align 4, !tbaa !4
  %48 = add nsw i32 %47, 1
  %49 = sext i32 %48 to i64
  %50 = getelementptr inbounds i32, ptr %46, i64 %49
  %51 = load i32, ptr %50, align 4, !tbaa !4
  %52 = call i32 @git_bswap32(i32 noundef %51)
  store i32 %52, ptr %12, align 4, !tbaa !4
  %53 = load i32, ptr %11, align 4, !tbaa !4
  %54 = load i32, ptr %12, align 4, !tbaa !4
  %55 = icmp ugt i32 %53, %54
  br i1 %55, label %56, label %60

56:                                               ; preds = %35
  %57 = call ptr @_(ptr noundef @.str.33)
  %58 = call i32 (ptr, ...) @error(ptr noundef %57)
  %59 = call i32 @const_error()
  store i32 1, ptr %4, align 4
  store i32 1, ptr %10, align 4
  br label %61

60:                                               ; preds = %35
  store i32 0, ptr %10, align 4
  br label %61

61:                                               ; preds = %60, %56
  call void @llvm.lifetime.end.p0(i64 4, ptr %12) #12
  call void @llvm.lifetime.end.p0(i64 4, ptr %11) #12
  %62 = load i32, ptr %10, align 4
  switch i32 %62, label %68 [
    i32 0, label %63
  ]

63:                                               ; preds = %61
  br label %64

64:                                               ; preds = %63
  %65 = load i32, ptr %9, align 4, !tbaa !4
  %66 = add nsw i32 %65, 1
  store i32 %66, ptr %9, align 4, !tbaa !4
  br label %32, !llvm.loop !103

67:                                               ; preds = %32
  store i32 0, ptr %4, align 4
  store i32 1, ptr %10, align 4
  br label %68

68:                                               ; preds = %67, %61, %16
  call void @llvm.lifetime.end.p0(i64 4, ptr %9) #12
  call void @llvm.lifetime.end.p0(i64 8, ptr %8) #12
  %69 = load i32, ptr %4, align 4
  ret i32 %69
}