; Function Attrs: nounwind uwtable
define internal range(i32 -1, 2) i32 @graph_read_oid_fanout(ptr noundef %0, i64 noundef %1, ptr noundef writeonly captures(none) %2) #0 {
  %.not = icmp eq i64 %1, 1024
  br i1 %.not, label %git_bswap32.exit, label %4

4:                                                ; preds = %3
  %5 = load i32, ptr @git_gettext_enabled, align 4, !tbaa !47
  %.not4.i = icmp eq i32 %5, 0
  br i1 %.not4.i, label %.loopexit.sink.split, label %.loopexit.sink.split.sink.split

git_bswap32.exit:                                 ; preds = %3
  %6 = getelementptr inbounds nuw i8, ptr %2, i64 96
  store ptr %0, ptr %6, align 8, !tbaa !95
  %7 = getelementptr inbounds nuw i8, ptr %0, i64 1020
  %8 = load i32, ptr %7, align 4, !tbaa !47
  %9 = tail call i32 asm "bswap $0", "=r,0,~{dirflag},~{fpsr},~{flags}"(i32 %8) #26, !srcloc !96
  %10 = getelementptr inbounds nuw i8, ptr %2, i64 20
  store i32 %9, ptr %10, align 4, !tbaa !97
  br label %.critedge

.critedge:                                        ; preds = %git_bswap32.exit20, %git_bswap32.exit
  %indvars.iv = phi i64 [ %indvars.iv.next, %git_bswap32.exit20 ], [ 0, %git_bswap32.exit ]
  %exitcond.not = icmp eq i64 %indvars.iv, 255
  br i1 %exitcond.not, label %.loopexit, label %git_bswap32.exit20

git_bswap32.exit20:                               ; preds = %.critedge
  %11 = getelementptr inbounds nuw i32, ptr %0, i64 %indvars.iv
  %12 = load i32, ptr %11, align 4, !tbaa !47
  %13 = tail call i32 asm "bswap $0", "=r,0,~{dirflag},~{fpsr},~{flags}"(i32 %12) #26, !srcloc !96
  %indvars.iv.next = add nuw nsw i64 %indvars.iv, 1
  %14 = getelementptr inbounds nuw i32, ptr %0, i64 %indvars.iv.next
  %15 = load i32, ptr %14, align 4, !tbaa !47
  %16 = tail call i32 asm "bswap $0", "=r,0,~{dirflag},~{fpsr},~{flags}"(i32 %15) #26, !srcloc !96
  %.not17 = icmp ugt i32 %13, %16
  br i1 %.not17, label %17, label %.critedge, !llvm.loop !98

17:                                               ; preds = %git_bswap32.exit20
  %18 = load i32, ptr @git_gettext_enabled, align 4, !tbaa !47
  %.not4.i23 = icmp eq i32 %18, 0
  br i1 %.not4.i23, label %.loopexit.sink.split, label %.loopexit.sink.split.sink.split

.loopexit.sink.split.sink.split:                  ; preds = %17, %4
  %.str.33.sink = phi ptr [ @.str.32, %4 ], [ @.str.33, %17 ]
  %.0.ph.ph = phi i32 [ -1, %4 ], [ 1, %17 ]
  %19 = tail call ptr @dcgettext(ptr noundef null, ptr noundef nonnull %.str.33.sink, i32 noundef 5) #24
  br label %.loopexit.sink.split

.loopexit.sink.split:                             ; preds = %.loopexit.sink.split.sink.split, %17, %4
  %.0.i24.sink = phi ptr [ @.str.32, %4 ], [ @.str.33, %17 ], [ %19, %.loopexit.sink.split.sink.split ]
  %.0.ph = phi i32 [ -1, %4 ], [ 1, %17 ], [ %.0.ph.ph, %.loopexit.sink.split.sink.split ]
  %20 = tail call i32 (ptr, ...) @error(ptr noundef %.0.i24.sink) #24
  br label %.loopexit

.loopexit:                                        ; preds = %.critedge, %.loopexit.sink.split
  %.0 = phi i32 [ %.0.ph, %.loopexit.sink.split ], [ 0, %.critedge ]
  ret i32 %.0
}